; Function Attrs: nounwind sspstrong uwtable
define dso_local i32 @vhdx_checksum_calc(i32 noundef %crc, ptr noundef %buf, i64 noundef %size, i32 noundef %crc_offset) local_unnamed_addr #0 {
entry:
  %cmp.not = icmp eq ptr %buf, null
  br i1 %cmp.not, label %if.else, label %if.end

if.else:                                          ; preds = %entry
  tail call void @__assert_fail(ptr noundef nonnull @.str, ptr noundef nonnull @.str.1, i32 noundef 172, ptr noundef nonnull @__PRETTY_FUNCTION__.vhdx_checksum_calc) #16
  unreachable

if.end:                                           ; preds = %entry
  %cmp1 = icmp sgt i32 %crc_offset, 0
  br i1 %cmp1, label %if.then8, label %if.end5

if.end5:                                          ; preds = %if.end
  %conv = trunc i64 %size to i32
  %call = tail call i32 @crc32c(i32 noundef %crc, ptr noundef nonnull %buf, i32 noundef %conv) #17
  br label %if.end11

if.then8:                                         ; preds = %if.end
  %idx.ext = zext nneg i32 %crc_offset to i64
  %add.ptr = getelementptr i8, ptr %buf, i64 %idx.ext
  %crc_orig.0.copyload = load i32, ptr %add.ptr, align 1
  store i32 0, ptr %add.ptr, align 1
  %conv11 = trunc i64 %size to i32
  %call12 = tail call i32 @crc32c(i32 noundef %crc, ptr noundef nonnull %buf, i32 noundef %conv11) #17
  store i32 %crc_orig.0.copyload, ptr %add.ptr, align 1
  br label %if.end11

if.end11:                                         ; preds = %if.end5, %if.then8
  %call14 = phi i32 [ %call12, %if.then8 ], [ %call, %if.end5 ]
  ret i32 %call14
}